; Function Attrs: mustprogress uwtable
define noundef i32 @_ZN3gmx28ColvarsSimulationsParameters29periodicBoundaryConditionTypeEv(ptr noundef nonnull readonly align 8 captures(none) dereferenceable(120) %0) local_unnamed_addr #1 align 2 personality ptr @__gxx_personality_v0 {
  %2 = alloca %"class.gmx::InternalError", align 8
  %3 = alloca %"class.gmx::ExceptionInitializer", align 8
  %4 = alloca %"class.gmx::ExceptionInfo", align 8
  %5 = getelementptr inbounds nuw i8, ptr %0, i64 8
  %6 = load ptr, ptr %5, align 8, !tbaa !78
  %.not.i = icmp eq ptr %6, null
  br i1 %.not.i, label %7, label %18

7:                                                ; preds = %1
  %8 = tail call ptr @__cxa_allocate_exception(i64 24) #19
  call void @llvm.lifetime.start.p0(i64 56, ptr nonnull %3) #19
  invoke void @_ZN3gmx20ExceptionInitializerC2EPKc(ptr noundef nonnull align 8 dereferenceable(56) %3, ptr noundef nonnull @.str.3)
          to label %9 unwind label %.thread

9:                                                ; preds = %7
  invoke void @_ZN3gmx16GromacsExceptionC2ERKNS_20ExceptionInitializerE(ptr noundef nonnull align 8 dereferenceable(24) %2, ptr noundef nonnull align 8 dereferenceable(56) %3)
          to label %10 unwind label %.thread13

10:                                               ; preds = %9
  store ptr getelementptr inbounds nuw inrange(-16, 32) (i8, ptr @_ZTVN3gmx13InternalErrorE, i64 16), ptr %2, align 8, !tbaa !29
  call void @llvm.lifetime.start.p0(i64 32, ptr nonnull %4) #19
  store ptr getelementptr inbounds nuw inrange(-16, 16) (i8, ptr @_ZTVN3gmx13ExceptionInfoINS_22ExceptionInfoLocation_ENS_13ThrowLocationEEE, i64 16), ptr %4, align 8, !tbaa !29
  %11 = getelementptr inbounds nuw i8, ptr %4, i64 8
  store ptr @__PRETTY_FUNCTION__._ZN3gmx28ColvarsSimulationsParameters29periodicBoundaryConditionTypeEv, ptr %11, align 8, !tbaa !31
  %.sroa.4.0..sroa_idx = getelementptr inbounds nuw i8, ptr %4, i64 16
  store ptr @.str.1, ptr %.sroa.4.0..sroa_idx, align 8, !tbaa !31
  %.sroa.5.0..sroa_idx = getelementptr inbounds nuw i8, ptr %4, i64 24
  store i32 86, ptr %.sroa.5.0..sroa_idx, align 8, !tbaa !33
  invoke void @_ZN3gmxlsINS_13InternalErrorENS_22ExceptionInfoLocation_ENS_13ThrowLocationEEENSt9enable_ifIXsr3stdE12is_base_of_vINS_16GromacsExceptionET_EES6_E4typeES6_RKNS_13ExceptionInfoIT0_T1_EE(ptr dead_on_unwind writable sret(%"class.gmx::InternalError") align 8 %8, ptr noundef nonnull %2, ptr noundef nonnull align 8 dereferenceable(32) %4)
          to label %12 unwind label %15

12:                                               ; preds = %10
  invoke void @__cxa_throw(ptr %8, ptr nonnull @_ZTIN3gmx13InternalErrorE, ptr nonnull @_ZN3gmx16GromacsExceptionD2Ev) #20
          to label %21 unwind label %15

.thread:                                          ; preds = %7
  %13 = landingpad { ptr, i32 }
          cleanup
  br label %.sink.split

.thread13:                                        ; preds = %9
  %14 = landingpad { ptr, i32 }
          cleanup
  call void @_ZN3gmx20ExceptionInitializerD2Ev(ptr noundef nonnull align 8 dereferenceable(56) %3) #19
  br label %.sink.split

15:                                               ; preds = %10, %12
  %.0 = phi i1 [ false, %12 ], [ true, %10 ]
  %16 = landingpad { ptr, i32 }
          cleanup
  call void @_ZN3gmx8internal14IExceptionInfoD2Ev(ptr noundef nonnull align 8 dereferenceable(32) %4) #19
  call void @llvm.lifetime.end.p0(i64 32, ptr nonnull %4) #19
  call void @_ZN3gmx16GromacsExceptionD2Ev(ptr noundef nonnull align 8 dereferenceable(24) %2) #19
  call void @_ZN3gmx20ExceptionInitializerD2Ev(ptr noundef nonnull align 8 dereferenceable(56) %3) #19
  call void @llvm.lifetime.end.p0(i64 56, ptr nonnull %3) #19
  br i1 %.0, label %17, label %20

.sink.split:                                      ; preds = %.thread, %.thread13
  %.pn.pn12.ph = phi { ptr, i32 } [ %14, %.thread13 ], [ %13, %.thread ]
  call void @llvm.lifetime.end.p0(i64 56, ptr nonnull %3) #19
  br label %17

17:                                               ; preds = %.sink.split, %15
  %.pn.pn12 = phi { ptr, i32 } [ %16, %15 ], [ %.pn.pn12.ph, %.sink.split ]
  call void @__cxa_free_exception(ptr %8) #19
  br label %20

18:                                               ; preds = %1
  %19 = load i32, ptr %6, align 4, !tbaa !76
  ret i32 %19

20:                                               ; preds = %15, %17
  %.pn.pn11 = phi { ptr, i32 } [ %16, %15 ], [ %.pn.pn12, %17 ]
  resume { ptr, i32 } %.pn.pn11

21:                                               ; preds = %12
  unreachable
}